; Function Attrs: mustprogress nounwind uwtable
define internal void @"_ZN4absl12lts_2023080222internal_any_invocable22LocalManagerNontrivialIZN17grpc_event_engine12experimental16PosixEventEngine18PollerWorkInternalESt10shared_ptrINS4_24PosixEnginePollerManagerEEE3$_1EEvNS1_14FunctionToCallEPNS1_15TypeErasedStateESC_"(i1 noundef zeroext %operation, ptr nocapture noundef %from, ptr nocapture noundef writeonly %to) #5 personality ptr @__gxx_personality_v0 {
entry:
  br i1 %operation, label %sw.bb1, label %sw.bb

sw.bb:                                            ; preds = %entry
  %0 = load ptr, ptr %from, align 8
  store ptr %0, ptr %to, align 8
  %_M_refcount.i.i.i = getelementptr inbounds i8, ptr %to, i64 8
  store ptr null, ptr %_M_refcount.i.i.i, align 8
  %_M_refcount4.i.i.i = getelementptr inbounds i8, ptr %from, i64 8
  %1 = load ptr, ptr %_M_refcount4.i.i.i, align 8
  store ptr null, ptr %_M_refcount4.i.i.i, align 8
  store ptr %1, ptr %_M_refcount.i.i.i, align 8
  store ptr null, ptr %from, align 8
  br label %sw.bb1

sw.bb1:                                           ; preds = %entry, %sw.bb
  %2 = getelementptr i8, ptr %from, i64 8
  %call.val = load ptr, ptr %2, align 8
  %cmp.not.i.i.i.i = icmp eq ptr %call.val, null
  br i1 %cmp.not.i.i.i.i, label %"_ZZN17grpc_event_engine12experimental16PosixEventEngine18PollerWorkInternalESt10shared_ptrINS0_24PosixEnginePollerManagerEEEN3$_1D2Ev.exit", label %if.then.i.i.i.i

if.then.i.i.i.i:                                  ; preds = %sw.bb1
  %_M_use_count.i.i.i.i.i = getelementptr inbounds i8, ptr %call.val, i64 8
  %3 = load atomic i64, ptr %_M_use_count.i.i.i.i.i acquire, align 8
  %cmp.i.i.i.i.i = icmp eq i64 %3, 4294967297
  %4 = trunc i64 %3 to i32
  br i1 %cmp.i.i.i.i.i, label %if.then.i.i.i.i.i, label %if.end.i.i.i.i.i

if.then.i.i.i.i.i:                                ; preds = %if.then.i.i.i.i
  store i32 0, ptr %_M_use_count.i.i.i.i.i, align 8
  %_M_weak_count.i.i.i.i.i = getelementptr inbounds i8, ptr %call.val, i64 12
  store i32 0, ptr %_M_weak_count.i.i.i.i.i, align 4
  %vtable.i.i.i.i.i = load ptr, ptr %call.val, align 8
  %vfn.i.i.i.i.i = getelementptr inbounds i8, ptr %vtable.i.i.i.i.i, i64 16
  %5 = load ptr, ptr %vfn.i.i.i.i.i, align 8
  tail call void %5(ptr noundef nonnull align 8 dereferenceable(16) %call.val) #26
  br label %if.end8.sink.split.i.i.i.i.i

if.end.i.i.i.i.i:                                 ; preds = %if.then.i.i.i.i
  %6 = load i8, ptr @__libc_single_threaded, align 1
  %tobool.i.not.i.i.i.i.i = icmp eq i8 %6, 0
  br i1 %tobool.i.not.i.i.i.i.i, label %if.else.i.i.i.i.i.i, label %if.then.i.i.i.i.i.i

if.then.i.i.i.i.i.i:                              ; preds = %if.end.i.i.i.i.i
  %add.i.i.i.i.i.i = add nsw i32 %4, -1
  store i32 %add.i.i.i.i.i.i, ptr %_M_use_count.i.i.i.i.i, align 4
  br label %_ZN9__gnu_cxx27__exchange_and_add_dispatchEPii.exit.i.i.i.i.i

if.else.i.i.i.i.i.i:                              ; preds = %if.end.i.i.i.i.i
  %7 = atomicrmw volatile add ptr %_M_use_count.i.i.i.i.i, i32 -1 acq_rel, align 4
  br label %_ZN9__gnu_cxx27__exchange_and_add_dispatchEPii.exit.i.i.i.i.i

_ZN9__gnu_cxx27__exchange_and_add_dispatchEPii.exit.i.i.i.i.i: ; preds = %if.else.i.i.i.i.i.i, %if.then.i.i.i.i.i.i
  %retval.i.0.i.i.i.i.i = phi i32 [ %4, %if.then.i.i.i.i.i.i ], [ %7, %if.else.i.i.i.i.i.i ]
  %cmp6.i.i.i.i.i = icmp eq i32 %retval.i.0.i.i.i.i.i, 1
  br i1 %cmp6.i.i.i.i.i, label %if.then7.i.i.i.i.i, label %"_ZZN17grpc_event_engine12experimental16PosixEventEngine18PollerWorkInternalESt10shared_ptrINS0_24PosixEnginePollerManagerEEEN3$_1D2Ev.exit"

if.then7.i.i.i.i.i:                               ; preds = %_ZN9__gnu_cxx27__exchange_and_add_dispatchEPii.exit.i.i.i.i.i
  %vtable.i.i.i.i.i.i.i = load ptr, ptr %call.val, align 8
  %vfn.i.i.i.i.i.i.i = getelementptr inbounds i8, ptr %vtable.i.i.i.i.i.i.i, i64 16
  %8 = load ptr, ptr %vfn.i.i.i.i.i.i.i, align 8
  tail call void %8(ptr noundef nonnull align 8 dereferenceable(16) %call.val) #26
  %_M_weak_count.i.i.i.i.i.i.i = getelementptr inbounds i8, ptr %call.val, i64 12
  %9 = load i8, ptr @__libc_single_threaded, align 1
  %tobool.i.not.i.i.i.i.i.i.i = icmp eq i8 %9, 0
  br i1 %tobool.i.not.i.i.i.i.i.i.i, label %if.else.i.i.i.i.i.i.i.i, label %if.then.i.i.i.i.i.i.i.i

if.then.i.i.i.i.i.i.i.i:                          ; preds = %if.then7.i.i.i.i.i
  %10 = load i32, ptr %_M_weak_count.i.i.i.i.i.i.i, align 4
  %add.i.i.i.i.i.i.i.i = add nsw i32 %10, -1
  store i32 %add.i.i.i.i.i.i.i.i, ptr %_M_weak_count.i.i.i.i.i.i.i, align 4
  br label %_ZN9__gnu_cxx27__exchange_and_add_dispatchEPii.exit.i.i.i.i.i.i.i

if.else.i.i.i.i.i.i.i.i:                          ; preds = %if.then7.i.i.i.i.i
  %11 = atomicrmw volatile add ptr %_M_weak_count.i.i.i.i.i.i.i, i32 -1 acq_rel, align 4
  br label %_ZN9__gnu_cxx27__exchange_and_add_dispatchEPii.exit.i.i.i.i.i.i.i

_ZN9__gnu_cxx27__exchange_and_add_dispatchEPii.exit.i.i.i.i.i.i.i: ; preds = %if.else.i.i.i.i.i.i.i.i, %if.then.i.i.i.i.i.i.i.i
  %retval.i.0.i.i.i.i.i.i.i = phi i32 [ %10, %if.then.i.i.i.i.i.i.i.i ], [ %11, %if.else.i.i.i.i.i.i.i.i ]
  %cmp.i.i.i.i.i.i.i = icmp eq i32 %retval.i.0.i.i.i.i.i.i.i, 1
  br i1 %cmp.i.i.i.i.i.i.i, label %if.end8.sink.split.i.i.i.i.i, label %"_ZZN17grpc_event_engine12experimental16PosixEventEngine18PollerWorkInternalESt10shared_ptrINS0_24PosixEnginePollerManagerEEEN3$_1D2Ev.exit"

if.end8.sink.split.i.i.i.i.i:                     ; preds = %_ZN9__gnu_cxx27__exchange_and_add_dispatchEPii.exit.i.i.i.i.i.i.i, %if.then.i.i.i.i.i
  %vtable2.i.i.i.i.i.i.i = load ptr, ptr %call.val, align 8
  %vfn3.i.i.i.i.i.i.i = getelementptr inbounds i8, ptr %vtable2.i.i.i.i.i.i.i, i64 24
  %12 = load ptr, ptr %vfn3.i.i.i.i.i.i.i, align 8
  tail call void %12(ptr noundef nonnull align 8 dereferenceable(16) %call.val) #26
  br label %"_ZZN17grpc_event_engine12experimental16PosixEventEngine18PollerWorkInternalESt10shared_ptrINS0_24PosixEnginePollerManagerEEEN3$_1D2Ev.exit"

"_ZZN17grpc_event_engine12experimental16PosixEventEngine18PollerWorkInternalESt10shared_ptrINS0_24PosixEnginePollerManagerEEEN3$_1D2Ev.exit": ; preds = %sw.bb1, %_ZN9__gnu_cxx27__exchange_and_add_dispatchEPii.exit.i.i.i.i.i, %_ZN9__gnu_cxx27__exchange_and_add_dispatchEPii.exit.i.i.i.i.i.i.i, %if.end8.sink.split.i.i.i.i.i
  ret void
}